(lp0
(lp1
F90.0
aF90.0
aF90.0
aF90.0
aF90.0
aI5
aa(lp2
F0.0
aF27.0
aF40.0
aF150.0
aF90.0
aI5
aa(lp3
F90.0
aF27.0
aF40.0
aF150.0
aF90.0
aI5
aa(lp4
F180.0
aF27.0
aF40.0
aF150.0
aF90.0
aI5
aa(lp5
F90.0
aF90.0
aF90.0
aF90.0
aF90.0
aF3.0
aa.